target datalayout = "e-m:e-p270:32:32-p271:32:32-p272:64:64-i64:64-i128:128-f80:128-n8:16:32:64-S128"
target triple = "x86_64-pc-linux-gnu"

%struct.__sigset_t = type { [16 x i64] }
%"struct.(anonymous namespace)::CrashRecoveryContextImpl" = type <{ ptr, ptr, [1 x %struct.__jmp_buf_tag], i8, [7 x i8] }>
%struct.__jmp_buf_tag = type { [8 x i64], i32, %struct.__sigset_t }

@_ZN12_GLOBAL__N_121gCrashRecoveryEnabledE = internal global i8 0, align 1
@_ZN12_GLOBAL__N_114CurrentContextE = internal thread_local global ptr null, align 8

; Function Attrs: mustprogress nounwind uwtable
define dso_local noundef ptr @_ZN4llvm20CrashRecoveryContext10GetCurrentEv() #0 align 2 {
  %1 = alloca ptr, align 8
  %2 = alloca ptr, align 8
  %3 = load i8, ptr @_ZN12_GLOBAL__N_121gCrashRecoveryEnabledE, align 1
  %4 = trunc i8 %3 to i1
  br i1 %4, label %6, label %5

5:                                                ; preds = %0
  store ptr null, ptr %1, align 8
  br label %16

6:                                                ; preds = %0
  %7 = call align 8 ptr @llvm.threadlocal.address.p0(ptr align 8 @_ZN12_GLOBAL__N_114CurrentContextE)
  %8 = load ptr, ptr %7, align 8
  store ptr %8, ptr %2, align 8
  %9 = load ptr, ptr %2, align 8
  %10 = icmp ne ptr %9, null
  br i1 %10, label %12, label %11

11:                                               ; preds = %6
  store ptr null, ptr %1, align 8
  br label %16

12:                                               ; preds = %6
  %13 = load ptr, ptr %2, align 8
  %14 = getelementptr inbounds nuw %"struct.(anonymous namespace)::CrashRecoveryContextImpl", ptr %13, i32 0, i32 1
  %15 = load ptr, ptr %14, align 8
  store ptr %15, ptr %1, align 8
  br label %16

16:                                               ; preds = %12, %11, %5
  %17 = load ptr, ptr %1, align 8
  ret ptr %17
}