; Function Attrs: mustprogress nofree norecurse nosync nounwind willreturn memory(read, inaccessiblemem: none) uwtable
define dso_local noundef ptr @_ZN4llvm20CrashRecoveryContext10GetCurrentEv() local_unnamed_addr #8 align 2 {
  %.b4 = load i1, ptr @_ZN12_GLOBAL__N_121gCrashRecoveryEnabledE, align 1
  br i1 %.b4, label %1, label %7

1:                                                ; preds = %0
  %2 = tail call align 8 ptr @llvm.threadlocal.address.p0(ptr align 8 @_ZN12_GLOBAL__N_114CurrentContextE)
  %3 = load ptr, ptr %2, align 8
  %.not = icmp eq ptr %3, null
  br i1 %.not, label %7, label %4

4:                                                ; preds = %1
  %5 = getelementptr inbounds nuw i8, ptr %3, i64 8
  %6 = load ptr, ptr %5, align 8
  br label %7

7:                                                ; preds = %1, %0, %4
  %.0 = phi ptr [ %6, %4 ], [ null, %0 ], [ null, %1 ]
  ret ptr %.0
}